; Function Attrs: nounwind uwtable
define ptr @Cudd_addUnivAbstract(ptr noundef %0, ptr noundef %1, ptr noundef %2) #0 {
  %4 = ptrtoint ptr %2 to i64
  %5 = and i64 %4, 1
  %.not10.i = icmp eq i64 %5, 0
  br i1 %.not10.i, label %.lr.ph.i, label %.loopexit11

.lr.ph.i:                                         ; preds = %3
  %6 = getelementptr inbounds nuw i8, ptr %0, i64 40
  %7 = load ptr, ptr %6, align 8, !tbaa !12
  %8 = getelementptr inbounds nuw i8, ptr %0, i64 48
  br label %9

9:                                                ; preds = %tailrecurse.i, %.lr.ph.i
  %.tr911.i = phi ptr [ %2, %.lr.ph.i ], [ %21, %tailrecurse.i ]
  %10 = icmp eq ptr %.tr911.i, %7
  br i1 %10, label %addCheckPositiveCube.exit.preheader, label %12

addCheckPositiveCube.exit.preheader:              ; preds = %9
  %11 = getelementptr inbounds nuw i8, ptr %0, i64 448
  br label %addCheckPositiveCube.exit

12:                                               ; preds = %9
  %13 = load i32, ptr %.tr911.i, align 8, !tbaa !26
  %14 = icmp eq i32 %13, 2147483647
  br i1 %14, label %.loopexit11, label %15

15:                                               ; preds = %12
  %16 = getelementptr inbounds nuw i8, ptr %.tr911.i, i64 24
  %17 = load ptr, ptr %16, align 8, !tbaa !27
  %18 = load ptr, ptr %8, align 8, !tbaa !28
  %19 = icmp eq ptr %17, %18
  br i1 %19, label %tailrecurse.i, label %.loopexit11

tailrecurse.i:                                    ; preds = %15
  %20 = getelementptr inbounds nuw i8, ptr %.tr911.i, i64 16
  %21 = load ptr, ptr %20, align 8, !tbaa !27
  %22 = ptrtoint ptr %21 to i64
  %23 = and i64 %22, 1
  %.not.i = icmp eq i64 %23, 0
  br i1 %.not.i, label %9, label %.loopexit11

.loopexit11:                                      ; preds = %15, %12, %tailrecurse.i, %3
  %24 = getelementptr inbounds nuw i8, ptr %0, i64 616
  %25 = load ptr, ptr %24, align 8, !tbaa !29
  %26 = tail call i64 @fwrite(ptr nonnull @.str.1, i64 31, i64 1, ptr %25)
  br label %.loopexit

addCheckPositiveCube.exit:                        ; preds = %addCheckPositiveCube.exit.preheader, %addCheckPositiveCube.exit
  store i32 0, ptr %11, align 8, !tbaa !30
  %27 = tail call ptr @cuddAddUnivAbstractRecur(ptr noundef nonnull %0, ptr noundef %1, ptr noundef %2)
  %28 = load i32, ptr %11, align 8, !tbaa !30
  %29 = icmp eq i32 %28, 1
  br i1 %29, label %addCheckPositiveCube.exit, label %.loopexit, !llvm.loop !35

.loopexit:                                        ; preds = %addCheckPositiveCube.exit, %.loopexit11
  %.0 = phi ptr [ null, %.loopexit11 ], [ %27, %addCheckPositiveCube.exit ]
  ret ptr %.0
}